target datalayout = "e-m:e-p270:32:32-p271:32:32-p272:64:64-i64:64-i128:128-f80:128-n8:16:32:64-S128"
target triple = "x86_64-pc-linux-gnu"

%struct.luaL_Reg = type { ptr, ptr }
%struct.strbuf_t = type { ptr, i64, i64, i32, i32, i32 }
%struct.json_config_t = type { [256 x i32], [256 x i8], %struct.strbuf_t, i32, i32, i32, i32, i32, i32, i32, i32, i32 }

@.str = private unnamed_addr constant [6 x i8] c"cjson\00", align 1
@.str.11 = private unnamed_addr constant [5 x i8] c"null\00", align 1
@.str.12 = private unnamed_addr constant [6 x i8] c"_NAME\00", align 1
@.str.13 = private unnamed_addr constant [6 x i8] c"2.1.0\00", align 1
@.str.14 = private unnamed_addr constant [9 x i8] c"_VERSION\00", align 1
@.str.97 = private unnamed_addr constant [5 x i8] c"__gc\00", align 1
@.str.98 = private unnamed_addr constant [18 x i8] c"too many upvalues\00", align 1

; Function Attrs: nounwind uwtable
define internal void @luaL_setfuncs(ptr noundef %0, ptr noundef %1, i32 noundef %2) #0 {
  %4 = alloca ptr, align 8
  %5 = alloca ptr, align 8
  %6 = alloca i32, align 4
  %7 = alloca i32, align 4
  store ptr %0, ptr %4, align 8, !tbaa !4
  store ptr %1, ptr %5, align 8, !tbaa !41
  store i32 %2, ptr %6, align 4, !tbaa !9
  call void @llvm.lifetime.start.p0(i64 4, ptr %7) #9
  %8 = load ptr, ptr %4, align 8, !tbaa !4
  %9 = load i32, ptr %6, align 4, !tbaa !9
  call void @luaL_checkstack(ptr noundef %8, i32 noundef %9, ptr noundef @.str.98)
  br label %10

10:                                               ; preds = %40, %3
  %11 = load ptr, ptr %5, align 8, !tbaa !41
  %12 = getelementptr inbounds nuw %struct.luaL_Reg, ptr %11, i32 0, i32 0
  %13 = load ptr, ptr %12, align 8, !tbaa !43
  %14 = icmp ne ptr %13, null
  br i1 %14, label %15, label %43

15:                                               ; preds = %10
  store i32 0, ptr %7, align 4, !tbaa !9
  br label %16

16:                                               ; preds = %24, %15
  %17 = load i32, ptr %7, align 4, !tbaa !9
  %18 = load i32, ptr %6, align 4, !tbaa !9
  %19 = icmp slt i32 %17, %18
  br i1 %19, label %20, label %27

20:                                               ; preds = %16
  %21 = load ptr, ptr %4, align 8, !tbaa !4
  %22 = load i32, ptr %6, align 4, !tbaa !9
  %23 = sub nsw i32 0, %22
  call void @lua_pushvalue(ptr noundef %21, i32 noundef %23)
  br label %24

24:                                               ; preds = %20
  %25 = load i32, ptr %7, align 4, !tbaa !9
  %26 = add nsw i32 %25, 1
  store i32 %26, ptr %7, align 4, !tbaa !9
  br label %16, !llvm.loop !45

27:                                               ; preds = %16
  %28 = load ptr, ptr %4, align 8, !tbaa !4
  %29 = load ptr, ptr %5, align 8, !tbaa !41
  %30 = getelementptr inbounds nuw %struct.luaL_Reg, ptr %29, i32 0, i32 1
  %31 = load ptr, ptr %30, align 8, !tbaa !46
  %32 = load i32, ptr %6, align 4, !tbaa !9
  call void @lua_pushcclosure(ptr noundef %28, ptr noundef %31, i32 noundef %32)
  %33 = load ptr, ptr %4, align 8, !tbaa !4
  %34 = load i32, ptr %6, align 4, !tbaa !9
  %35 = add nsw i32 %34, 2
  %36 = sub nsw i32 0, %35
  %37 = load ptr, ptr %5, align 8, !tbaa !41
  %38 = getelementptr inbounds nuw %struct.luaL_Reg, ptr %37, i32 0, i32 0
  %39 = load ptr, ptr %38, align 8, !tbaa !43
  call void @lua_setfield(ptr noundef %33, i32 noundef %36, ptr noundef %39)
  br label %40

40:                                               ; preds = %27
  %41 = load ptr, ptr %5, align 8, !tbaa !41
  %42 = getelementptr inbounds nuw %struct.luaL_Reg, ptr %41, i32 1
  store ptr %42, ptr %5, align 8, !tbaa !41
  br label %10, !llvm.loop !47

43:                                               ; preds = %10
  %44 = load ptr, ptr %4, align 8, !tbaa !4
  %45 = load i32, ptr %6, align 4, !tbaa !9
  %46 = sub nsw i32 0, %45
  %47 = sub nsw i32 %46, 1
  call void @lua_settop(ptr noundef %44, i32 noundef %47)
  call void @llvm.lifetime.end.p0(i64 4, ptr %7) #9
  ret void
}

; Function Attrs: nounwind uwtable
define internal void @json_create_config(ptr noundef %0) #0 {
  %2 = alloca ptr, align 8
  %3 = alloca ptr, align 8
  %4 = alloca i32, align 4
  store ptr %0, ptr %2, align 8, !tbaa !4
  call void @llvm.lifetime.start.p0(i64 8, ptr %3) #9
  call void @llvm.lifetime.start.p0(i64 4, ptr %4) #9
  %5 = load ptr, ptr %2, align 8, !tbaa !4
  %6 = call ptr @lua_newuserdata(ptr noundef %5, i64 noundef 1360)
  store ptr %6, ptr %3, align 8, !tbaa !15
  %7 = load ptr, ptr %2, align 8, !tbaa !4
  call void @lua_createtable(ptr noundef %7, i32 noundef 0, i32 noundef 0)
  %8 = load ptr, ptr %2, align 8, !tbaa !4
  call void @lua_pushcclosure(ptr noundef %8, ptr noundef @json_destroy_config, i32 noundef 0)
  %9 = load ptr, ptr %2, align 8, !tbaa !4
  call void @lua_setfield(ptr noundef %9, i32 noundef -2, ptr noundef @.str.97)
  %10 = load ptr, ptr %2, align 8, !tbaa !4
  %11 = call i32 @lua_setmetatable(ptr noundef %10, i32 noundef -2)
  %12 = load ptr, ptr %3, align 8, !tbaa !15
  %13 = getelementptr inbounds nuw %struct.json_config_t, ptr %12, i32 0, i32 3
  store i32 0, ptr %13, align 8, !tbaa !30
  %14 = load ptr, ptr %3, align 8, !tbaa !15
  %15 = getelementptr inbounds nuw %struct.json_config_t, ptr %14, i32 0, i32 4
  store i32 2, ptr %15, align 4, !tbaa !31
  %16 = load ptr, ptr %3, align 8, !tbaa !15
  %17 = getelementptr inbounds nuw %struct.json_config_t, ptr %16, i32 0, i32 5
  store i32 10, ptr %17, align 8, !tbaa !32
  %18 = load ptr, ptr %3, align 8, !tbaa !15
  %19 = getelementptr inbounds nuw %struct.json_config_t, ptr %18, i32 0, i32 6
  store i32 1000, ptr %19, align 4, !tbaa !33
  %20 = load ptr, ptr %3, align 8, !tbaa !15
  %21 = getelementptr inbounds nuw %struct.json_config_t, ptr %20, i32 0, i32 11
  store i32 1000, ptr %21, align 8, !tbaa !34
  %22 = load ptr, ptr %3, align 8, !tbaa !15
  %23 = getelementptr inbounds nuw %struct.json_config_t, ptr %22, i32 0, i32 7
  store i32 0, ptr %23, align 8, !tbaa !35
  %24 = load ptr, ptr %3, align 8, !tbaa !15
  %25 = getelementptr inbounds nuw %struct.json_config_t, ptr %24, i32 0, i32 10
  store i32 1, ptr %25, align 4, !tbaa !36
  %26 = load ptr, ptr %3, align 8, !tbaa !15
  %27 = getelementptr inbounds nuw %struct.json_config_t, ptr %26, i32 0, i32 9
  store i32 1, ptr %27, align 8, !tbaa !16
  %28 = load ptr, ptr %3, align 8, !tbaa !15
  %29 = getelementptr inbounds nuw %struct.json_config_t, ptr %28, i32 0, i32 8
  store i32 14, ptr %29, align 4, !tbaa !37
  %30 = load ptr, ptr %3, align 8, !tbaa !15
  %31 = getelementptr inbounds nuw %struct.json_config_t, ptr %30, i32 0, i32 2
  call void @strbuf_init(ptr noundef %31, i64 noundef 0)
  store i32 0, ptr %4, align 4, !tbaa !9
  br label %32

32:                                               ; preds = %41, %1
  %33 = load i32, ptr %4, align 4, !tbaa !9
  %34 = icmp slt i32 %33, 256
  br i1 %34, label %35, label %44

35:                                               ; preds = %32
  %36 = load ptr, ptr %3, align 8, !tbaa !15
  %37 = getelementptr inbounds nuw %struct.json_config_t, ptr %36, i32 0, i32 0
  %38 = load i32, ptr %4, align 4, !tbaa !9
  %39 = sext i32 %38 to i64
  %40 = getelementptr inbounds [256 x i32], ptr %37, i64 0, i64 %39
  store i32 12, ptr %40, align 4, !tbaa !9
  br label %41

41:                                               ; preds = %35
  %42 = load i32, ptr %4, align 4, !tbaa !9
  %43 = add nsw i32 %42, 1
  store i32 %43, ptr %4, align 4, !tbaa !9
  br label %32, !llvm.loop !38

44:                                               ; preds = %32
  %45 = load ptr, ptr %3, align 8, !tbaa !15
  %46 = getelementptr inbounds nuw %struct.json_config_t, ptr %45, i32 0, i32 0
  %47 = getelementptr inbounds [256 x i32], ptr %46, i64 0, i64 123
  store i32 0, ptr %47, align 4, !tbaa !9
  %48 = load ptr, ptr %3, align 8, !tbaa !15
  %49 = getelementptr inbounds nuw %struct.json_config_t, ptr %48, i32 0, i32 0
  %50 = getelementptr inbounds [256 x i32], ptr %49, i64 0, i64 125
  store i32 1, ptr %50, align 4, !tbaa !9
  %51 = load ptr, ptr %3, align 8, !tbaa !15
  %52 = getelementptr inbounds nuw %struct.json_config_t, ptr %51, i32 0, i32 0
  %53 = getelementptr inbounds [256 x i32], ptr %52, i64 0, i64 91
  store i32 2, ptr %53, align 4, !tbaa !9
  %54 = load ptr, ptr %3, align 8, !tbaa !15
  %55 = getelementptr inbounds nuw %struct.json_config_t, ptr %54, i32 0, i32 0
  %56 = getelementptr inbounds [256 x i32], ptr %55, i64 0, i64 93
  store i32 3, ptr %56, align 4, !tbaa !9
  %57 = load ptr, ptr %3, align 8, !tbaa !15
  %58 = getelementptr inbounds nuw %struct.json_config_t, ptr %57, i32 0, i32 0
  %59 = getelementptr inbounds [256 x i32], ptr %58, i64 0, i64 44
  store i32 9, ptr %59, align 8, !tbaa !9
  %60 = load ptr, ptr %3, align 8, !tbaa !15
  %61 = getelementptr inbounds nuw %struct.json_config_t, ptr %60, i32 0, i32 0
  %62 = getelementptr inbounds [256 x i32], ptr %61, i64 0, i64 58
  store i32 8, ptr %62, align 8, !tbaa !9
  %63 = load ptr, ptr %3, align 8, !tbaa !15
  %64 = getelementptr inbounds nuw %struct.json_config_t, ptr %63, i32 0, i32 0
  %65 = getelementptr inbounds [256 x i32], ptr %64, i64 0, i64 0
  store i32 10, ptr %65, align 8, !tbaa !9
  %66 = load ptr, ptr %3, align 8, !tbaa !15
  %67 = getelementptr inbounds nuw %struct.json_config_t, ptr %66, i32 0, i32 0
  %68 = getelementptr inbounds [256 x i32], ptr %67, i64 0, i64 32
  store i32 11, ptr %68, align 8, !tbaa !9
  %69 = load ptr, ptr %3, align 8, !tbaa !15
  %70 = getelementptr inbounds nuw %struct.json_config_t, ptr %69, i32 0, i32 0
  %71 = getelementptr inbounds [256 x i32], ptr %70, i64 0, i64 9
  store i32 11, ptr %71, align 4, !tbaa !9
  %72 = load ptr, ptr %3, align 8, !tbaa !15
  %73 = getelementptr inbounds nuw %struct.json_config_t, ptr %72, i32 0, i32 0
  %74 = getelementptr inbounds [256 x i32], ptr %73, i64 0, i64 10
  store i32 11, ptr %74, align 8, !tbaa !9
  %75 = load ptr, ptr %3, align 8, !tbaa !15
  %76 = getelementptr inbounds nuw %struct.json_config_t, ptr %75, i32 0, i32 0
  %77 = getelementptr inbounds [256 x i32], ptr %76, i64 0, i64 13
  store i32 11, ptr %77, align 4, !tbaa !9
  %78 = load ptr, ptr %3, align 8, !tbaa !15
  %79 = getelementptr inbounds nuw %struct.json_config_t, ptr %78, i32 0, i32 0
  %80 = getelementptr inbounds [256 x i32], ptr %79, i64 0, i64 102
  store i32 13, ptr %80, align 8, !tbaa !9
  %81 = load ptr, ptr %3, align 8, !tbaa !15
  %82 = getelementptr inbounds nuw %struct.json_config_t, ptr %81, i32 0, i32 0
  %83 = getelementptr inbounds [256 x i32], ptr %82, i64 0, i64 105
  store i32 13, ptr %83, align 4, !tbaa !9
  %84 = load ptr, ptr %3, align 8, !tbaa !15
  %85 = getelementptr inbounds nuw %struct.json_config_t, ptr %84, i32 0, i32 0
  %86 = getelementptr inbounds [256 x i32], ptr %85, i64 0, i64 73
  store i32 13, ptr %86, align 4, !tbaa !9
  %87 = load ptr, ptr %3, align 8, !tbaa !15
  %88 = getelementptr inbounds nuw %struct.json_config_t, ptr %87, i32 0, i32 0
  %89 = getelementptr inbounds [256 x i32], ptr %88, i64 0, i64 110
  store i32 13, ptr %89, align 8, !tbaa !9
  %90 = load ptr, ptr %3, align 8, !tbaa !15
  %91 = getelementptr inbounds nuw %struct.json_config_t, ptr %90, i32 0, i32 0
  %92 = getelementptr inbounds [256 x i32], ptr %91, i64 0, i64 78
  store i32 13, ptr %92, align 8, !tbaa !9
  %93 = load ptr, ptr %3, align 8, !tbaa !15
  %94 = getelementptr inbounds nuw %struct.json_config_t, ptr %93, i32 0, i32 0
  %95 = getelementptr inbounds [256 x i32], ptr %94, i64 0, i64 116
  store i32 13, ptr %95, align 8, !tbaa !9
  %96 = load ptr, ptr %3, align 8, !tbaa !15
  %97 = getelementptr inbounds nuw %struct.json_config_t, ptr %96, i32 0, i32 0
  %98 = getelementptr inbounds [256 x i32], ptr %97, i64 0, i64 34
  store i32 13, ptr %98, align 8, !tbaa !9
  %99 = load ptr, ptr %3, align 8, !tbaa !15
  %100 = getelementptr inbounds nuw %struct.json_config_t, ptr %99, i32 0, i32 0
  %101 = getelementptr inbounds [256 x i32], ptr %100, i64 0, i64 43
  store i32 13, ptr %101, align 4, !tbaa !9
  %102 = load ptr, ptr %3, align 8, !tbaa !15
  %103 = getelementptr inbounds nuw %struct.json_config_t, ptr %102, i32 0, i32 0
  %104 = getelementptr inbounds [256 x i32], ptr %103, i64 0, i64 45
  store i32 13, ptr %104, align 4, !tbaa !9
  store i32 0, ptr %4, align 4, !tbaa !9
  br label %105

105:                                              ; preds = %115, %44
  %106 = load i32, ptr %4, align 4, !tbaa !9
  %107 = icmp slt i32 %106, 10
  br i1 %107, label %108, label %118

108:                                              ; preds = %105
  %109 = load ptr, ptr %3, align 8, !tbaa !15
  %110 = getelementptr inbounds nuw %struct.json_config_t, ptr %109, i32 0, i32 0
  %111 = load i32, ptr %4, align 4, !tbaa !9
  %112 = add nsw i32 48, %111
  %113 = sext i32 %112 to i64
  %114 = getelementptr inbounds [256 x i32], ptr %110, i64 0, i64 %113
  store i32 13, ptr %114, align 4, !tbaa !9
  br label %115

115:                                              ; preds = %108
  %116 = load i32, ptr %4, align 4, !tbaa !9
  %117 = add nsw i32 %116, 1
  store i32 %117, ptr %4, align 4, !tbaa !9
  br label %105, !llvm.loop !39

118:                                              ; preds = %105
  store i32 0, ptr %4, align 4, !tbaa !9
  br label %119

119:                                              ; preds = %128, %118
  %120 = load i32, ptr %4, align 4, !tbaa !9
  %121 = icmp slt i32 %120, 256
  br i1 %121, label %122, label %131

122:                                              ; preds = %119
  %123 = load ptr, ptr %3, align 8, !tbaa !15
  %124 = getelementptr inbounds nuw %struct.json_config_t, ptr %123, i32 0, i32 1
  %125 = load i32, ptr %4, align 4, !tbaa !9
  %126 = sext i32 %125 to i64
  %127 = getelementptr inbounds [256 x i8], ptr %124, i64 0, i64 %126
  store i8 0, ptr %127, align 1, !tbaa !26
  br label %128

128:                                              ; preds = %122
  %129 = load i32, ptr %4, align 4, !tbaa !9
  %130 = add nsw i32 %129, 1
  store i32 %130, ptr %4, align 4, !tbaa !9
  br label %119, !llvm.loop !40

131:                                              ; preds = %119
  %132 = load ptr, ptr %3, align 8, !tbaa !15
  %133 = getelementptr inbounds nuw %struct.json_config_t, ptr %132, i32 0, i32 1
  %134 = getelementptr inbounds [256 x i8], ptr %133, i64 0, i64 34
  store i8 34, ptr %134, align 2, !tbaa !26
  %135 = load ptr, ptr %3, align 8, !tbaa !15
  %136 = getelementptr inbounds nuw %struct.json_config_t, ptr %135, i32 0, i32 1
  %137 = getelementptr inbounds [256 x i8], ptr %136, i64 0, i64 92
  store i8 92, ptr %137, align 4, !tbaa !26
  %138 = load ptr, ptr %3, align 8, !tbaa !15
  %139 = getelementptr inbounds nuw %struct.json_config_t, ptr %138, i32 0, i32 1
  %140 = getelementptr inbounds [256 x i8], ptr %139, i64 0, i64 47
  store i8 47, ptr %140, align 1, !tbaa !26
  %141 = load ptr, ptr %3, align 8, !tbaa !15
  %142 = getelementptr inbounds nuw %struct.json_config_t, ptr %141, i32 0, i32 1
  %143 = getelementptr inbounds [256 x i8], ptr %142, i64 0, i64 98
  store i8 8, ptr %143, align 2, !tbaa !26
  %144 = load ptr, ptr %3, align 8, !tbaa !15
  %145 = getelementptr inbounds nuw %struct.json_config_t, ptr %144, i32 0, i32 1
  %146 = getelementptr inbounds [256 x i8], ptr %145, i64 0, i64 116
  store i8 9, ptr %146, align 4, !tbaa !26
  %147 = load ptr, ptr %3, align 8, !tbaa !15
  %148 = getelementptr inbounds nuw %struct.json_config_t, ptr %147, i32 0, i32 1
  %149 = getelementptr inbounds [256 x i8], ptr %148, i64 0, i64 110
  store i8 10, ptr %149, align 2, !tbaa !26
  %150 = load ptr, ptr %3, align 8, !tbaa !15
  %151 = getelementptr inbounds nuw %struct.json_config_t, ptr %150, i32 0, i32 1
  %152 = getelementptr inbounds [256 x i8], ptr %151, i64 0, i64 102
  store i8 12, ptr %152, align 2, !tbaa !26
  %153 = load ptr, ptr %3, align 8, !tbaa !15
  %154 = getelementptr inbounds nuw %struct.json_config_t, ptr %153, i32 0, i32 1
  %155 = getelementptr inbounds [256 x i8], ptr %154, i64 0, i64 114
  store i8 13, ptr %155, align 2, !tbaa !26
  %156 = load ptr, ptr %3, align 8, !tbaa !15
  %157 = getelementptr inbounds nuw %struct.json_config_t, ptr %156, i32 0, i32 1
  %158 = getelementptr inbounds [256 x i8], ptr %157, i64 0, i64 117
  store i8 117, ptr %158, align 1, !tbaa !26
  call void @llvm.lifetime.end.p0(i64 4, ptr %4) #9
  call void @llvm.lifetime.end.p0(i64 8, ptr %3) #9
  ret void
}

; Function Attrs: nounwind uwtable
define internal i32 @lua_cjson_new(ptr noundef %0) #0 {
  %2 = alloca ptr, align 8
  %3 = alloca [11 x %struct.luaL_Reg], align 16
  store ptr %0, ptr %2, align 8, !tbaa !4
  call void @llvm.lifetime.start.p0(i64 176, ptr %3) #9
  call void @llvm.memcpy.p0.p0.i64(ptr align 16 %3, ptr align 16 @__const.lua_cjson_new.reg, i64 176, i1 false)
  call void (...) @fpconv_init()
  %4 = load ptr, ptr %2, align 8, !tbaa !4
  call void @lua_createtable(ptr noundef %4, i32 noundef 0, i32 noundef 0)
  %5 = load ptr, ptr %2, align 8, !tbaa !4
  call void @json_create_config(ptr noundef %5)
  %6 = load ptr, ptr %2, align 8, !tbaa !4
  %7 = getelementptr inbounds [11 x %struct.luaL_Reg], ptr %3, i64 0, i64 0
  call void @luaL_setfuncs(ptr noundef %6, ptr noundef %7, i32 noundef 1)
  %8 = load ptr, ptr %2, align 8, !tbaa !4
  call void @lua_pushlightuserdata(ptr noundef %8, ptr noundef null)
  %9 = load ptr, ptr %2, align 8, !tbaa !4
  call void @lua_setfield(ptr noundef %9, i32 noundef -2, ptr noundef @.str.11)
  %10 = load ptr, ptr %2, align 8, !tbaa !4
  call void @lua_pushlstring(ptr noundef %10, ptr noundef @.str, i64 noundef 5)
  %11 = load ptr, ptr %2, align 8, !tbaa !4
  call void @lua_setfield(ptr noundef %11, i32 noundef -2, ptr noundef @.str.12)
  %12 = load ptr, ptr %2, align 8, !tbaa !4
  call void @lua_pushlstring(ptr noundef %12, ptr noundef @.str.13, i64 noundef 5)
  %13 = load ptr, ptr %2, align 8, !tbaa !4
  call void @lua_setfield(ptr noundef %13, i32 noundef -2, ptr noundef @.str.14)
  call void @llvm.lifetime.end.p0(i64 176, ptr %3) #9
  ret i32 1
}