; Function Attrs: nounwind uwtable
define internal noundef i32 @lua_cjson_new(ptr noundef %0) #0 {
  tail call void (...) @fpconv_init() #12
  tail call void @lua_createtable(ptr noundef %0, i32 noundef 0, i32 noundef 0) #12
  %2 = tail call ptr @lua_newuserdata(ptr noundef %0, i64 noundef 1360) #12
  tail call void @lua_createtable(ptr noundef %0, i32 noundef 0, i32 noundef 0) #12
  tail call void @lua_pushcclosure(ptr noundef %0, ptr noundef nonnull @json_destroy_config, i32 noundef 0) #12
  tail call void @lua_setfield(ptr noundef %0, i32 noundef -2, ptr noundef nonnull @.str.97) #12
  %3 = tail call i32 @lua_setmetatable(ptr noundef %0, i32 noundef -2) #12
  %4 = getelementptr inbounds nuw i8, ptr %2, i64 1320
  store i32 0, ptr %4, align 8, !tbaa !4
  %5 = getelementptr inbounds nuw i8, ptr %2, i64 1324
  store i32 2, ptr %5, align 4, !tbaa !13
  %6 = getelementptr inbounds nuw i8, ptr %2, i64 1328
  store i32 10, ptr %6, align 8, !tbaa !14
  %7 = getelementptr inbounds nuw i8, ptr %2, i64 1332
  store i32 1000, ptr %7, align 4, !tbaa !15
  %8 = getelementptr inbounds nuw i8, ptr %2, i64 1352
  store i32 1000, ptr %8, align 8, !tbaa !16
  %9 = getelementptr inbounds nuw i8, ptr %2, i64 1336
  store i32 0, ptr %9, align 8, !tbaa !17
  %10 = getelementptr inbounds nuw i8, ptr %2, i64 1348
  store i32 1, ptr %10, align 4, !tbaa !18
  %11 = getelementptr inbounds nuw i8, ptr %2, i64 1344
  store i32 1, ptr %11, align 8, !tbaa !19
  %12 = getelementptr inbounds nuw i8, ptr %2, i64 1340
  store i32 14, ptr %12, align 4, !tbaa !20
  %13 = getelementptr inbounds nuw i8, ptr %2, i64 1280
  tail call void @strbuf_init(ptr noundef nonnull %13, i64 noundef 0) #12
  br label %14

14:                                               ; preds = %14, %1
  %indvars.iv.i = phi i64 [ 0, %1 ], [ %indvars.iv.next.i, %14 ]
  %15 = getelementptr inbounds nuw [256 x i32], ptr %2, i64 0, i64 %indvars.iv.i
  store i32 12, ptr %15, align 4, !tbaa !21
  %indvars.iv.next.i = add nuw nsw i64 %indvars.iv.i, 1
  %exitcond.not.i = icmp eq i64 %indvars.iv.next.i, 256
  br i1 %exitcond.not.i, label %16, label %14, !llvm.loop !22

16:                                               ; preds = %14
  %17 = getelementptr inbounds nuw i8, ptr %2, i64 492
  store i32 0, ptr %17, align 4, !tbaa !21
  %18 = getelementptr inbounds nuw i8, ptr %2, i64 500
  store i32 1, ptr %18, align 4, !tbaa !21
  %19 = getelementptr inbounds nuw i8, ptr %2, i64 364
  store i32 2, ptr %19, align 4, !tbaa !21
  %20 = getelementptr inbounds nuw i8, ptr %2, i64 372
  store i32 3, ptr %20, align 4, !tbaa !21
  %21 = getelementptr inbounds nuw i8, ptr %2, i64 176
  store i32 9, ptr %21, align 8, !tbaa !21
  %22 = getelementptr inbounds nuw i8, ptr %2, i64 232
  store i32 8, ptr %22, align 8, !tbaa !21
  store i32 10, ptr %2, align 8, !tbaa !21
  %23 = getelementptr inbounds nuw i8, ptr %2, i64 128
  store i32 11, ptr %23, align 8, !tbaa !21
  %24 = getelementptr inbounds nuw i8, ptr %2, i64 36
  store i32 11, ptr %24, align 4, !tbaa !21
  %25 = getelementptr inbounds nuw i8, ptr %2, i64 40
  store i32 11, ptr %25, align 8, !tbaa !21
  %26 = getelementptr inbounds nuw i8, ptr %2, i64 52
  store i32 11, ptr %26, align 4, !tbaa !21
  %27 = getelementptr inbounds nuw i8, ptr %2, i64 408
  store i32 13, ptr %27, align 8, !tbaa !21
  %28 = getelementptr inbounds nuw i8, ptr %2, i64 420
  store i32 13, ptr %28, align 4, !tbaa !21
  %29 = getelementptr inbounds nuw i8, ptr %2, i64 292
  store i32 13, ptr %29, align 4, !tbaa !21
  %30 = getelementptr inbounds nuw i8, ptr %2, i64 440
  store i32 13, ptr %30, align 8, !tbaa !21
  %31 = getelementptr inbounds nuw i8, ptr %2, i64 312
  store i32 13, ptr %31, align 8, !tbaa !21
  %32 = getelementptr inbounds nuw i8, ptr %2, i64 464
  store i32 13, ptr %32, align 8, !tbaa !21
  %33 = getelementptr inbounds nuw i8, ptr %2, i64 136
  store i32 13, ptr %33, align 8, !tbaa !21
  %34 = getelementptr inbounds nuw i8, ptr %2, i64 172
  store i32 13, ptr %34, align 4, !tbaa !21
  %35 = getelementptr inbounds nuw i8, ptr %2, i64 180
  store i32 13, ptr %35, align 4, !tbaa !21
  br label %36

36:                                               ; preds = %36, %16
  %indvars.iv59.i = phi i64 [ 0, %16 ], [ %indvars.iv.next60.i, %36 ]
  %37 = or disjoint i64 %indvars.iv59.i, 48
  %38 = getelementptr inbounds nuw [256 x i32], ptr %2, i64 0, i64 %37
  store i32 13, ptr %38, align 4, !tbaa !21
  %indvars.iv.next60.i = add nuw nsw i64 %indvars.iv59.i, 1
  %exitcond62.not.i = icmp eq i64 %indvars.iv.next60.i, 10
  br i1 %exitcond62.not.i, label %json_create_config.exit, label %36, !llvm.loop !24

json_create_config.exit:                          ; preds = %36
  %39 = getelementptr inbounds nuw i8, ptr %2, i64 1024
  tail call void @llvm.memset.p0.i64(ptr noundef nonnull align 1 dereferenceable(256) %39, i8 0, i64 256, i1 false), !tbaa !25
  %40 = getelementptr inbounds nuw i8, ptr %2, i64 1058
  store i8 34, ptr %40, align 2, !tbaa !25
  %41 = getelementptr inbounds nuw i8, ptr %2, i64 1116
  store i8 92, ptr %41, align 4, !tbaa !25
  %42 = getelementptr inbounds nuw i8, ptr %2, i64 1071
  store i8 47, ptr %42, align 1, !tbaa !25
  %43 = getelementptr inbounds nuw i8, ptr %2, i64 1122
  store i8 8, ptr %43, align 2, !tbaa !25
  %44 = getelementptr inbounds nuw i8, ptr %2, i64 1140
  store i8 9, ptr %44, align 4, !tbaa !25
  %45 = getelementptr inbounds nuw i8, ptr %2, i64 1134
  store i8 10, ptr %45, align 2, !tbaa !25
  %46 = getelementptr inbounds nuw i8, ptr %2, i64 1126
  store i8 12, ptr %46, align 2, !tbaa !25
  %47 = getelementptr inbounds nuw i8, ptr %2, i64 1138
  store i8 13, ptr %47, align 2, !tbaa !25
  %48 = getelementptr inbounds nuw i8, ptr %2, i64 1141
  store i8 117, ptr %48, align 1, !tbaa !25
  tail call void @luaL_checkstack(ptr noundef %0, i32 noundef 1, ptr noundef nonnull @.str.98) #12
  br label %.critedge.i

.critedge.i:                                      ; preds = %json_create_config.exit, %.critedge.i
  %.01619.i = phi ptr [ %52, %.critedge.i ], [ @__const.lua_cjson_new.reg, %json_create_config.exit ]
  tail call void @lua_pushvalue(ptr noundef %0, i32 noundef -1) #12
  %49 = getelementptr inbounds nuw i8, ptr %.01619.i, i64 8
  %50 = load ptr, ptr %49, align 8, !tbaa !26
  tail call void @lua_pushcclosure(ptr noundef %0, ptr noundef %50, i32 noundef 1) #12
  %51 = load ptr, ptr %.01619.i, align 8, !tbaa !28
  tail call void @lua_setfield(ptr noundef %0, i32 noundef -3, ptr noundef %51) #12
  %52 = getelementptr inbounds nuw i8, ptr %.01619.i, i64 16
  %53 = load ptr, ptr %52, align 8, !tbaa !28
  %.not.i = icmp eq ptr %53, null
  br i1 %.not.i, label %luaL_setfuncs.exit, label %.critedge.i, !llvm.loop !29

luaL_setfuncs.exit:                               ; preds = %.critedge.i
  tail call void @lua_settop(ptr noundef %0, i32 noundef -2) #12
  tail call void @lua_pushlightuserdata(ptr noundef %0, ptr noundef null) #12
  tail call void @lua_setfield(ptr noundef %0, i32 noundef -2, ptr noundef nonnull @.str.11) #12
  tail call void @lua_pushlstring(ptr noundef %0, ptr noundef nonnull @.str, i64 noundef 5) #12
  tail call void @lua_setfield(ptr noundef %0, i32 noundef -2, ptr noundef nonnull @.str.12) #12
  tail call void @lua_pushlstring(ptr noundef %0, ptr noundef nonnull @.str.13, i64 noundef 5) #12
  tail call void @lua_setfield(ptr noundef %0, i32 noundef -2, ptr noundef nonnull @.str.14) #12
  ret i32 1
}